target datalayout = "e-m:e-p270:32:32-p271:32:32-p272:64:64-i64:64-i128:128-f80:128-n8:16:32:64-S128"
target triple = "x86_64-pc-linux-gnu"

%struct.H5O_storage_virtual_t = type { %struct.H5HG_t, i64, ptr, i64, [32 x i64], i32, i64, i64, i64, i8 }
%struct.H5HG_t = type { i64, i64 }
%struct.H5O_storage_virtual_ent_t = type { %struct.H5O_storage_virtual_srcdset_t, ptr, ptr, ptr, ptr, i64, i64, i64, i64, ptr, i64, i64, ptr, i64, i64, i32, i32, i64, i64, i64, i64, i32, i32 }
%struct.H5O_storage_virtual_srcdset_t = type { ptr, ptr, ptr, ptr, ptr, ptr, i8, ptr }

@H5D_init_g = external global i8, align 1
@H5_libterm_g = external global i8, align 1
@.str.1 = private unnamed_addr constant [104 x i8] c"generated/home/dtcxzyw/WorkSpace/Projects/compilers/llvm-opt-benchmark/bench/hdf5/hdf5/src/H5Dvirtual.c\00", align 1
@H5E_DATASET_g = external global i64, align 8
@H5E_CLOSEERROR_g = external global i64, align 8
@__func__.H5D__virtual_post_io = private unnamed_addr constant [21 x i8] c"H5D__virtual_post_io\00", align 1
@.str.103 = private unnamed_addr constant [28 x i8] c"can't close temporary space\00", align 1

; Function Attrs: nounwind uwtable
define internal i32 @H5D__virtual_post_io(ptr noundef %0) #0 {
  %2 = alloca ptr, align 8
  %3 = alloca i64, align 8
  %4 = alloca i64, align 8
  %5 = alloca i32, align 4
  %6 = alloca i8, align 1
  store ptr %0, ptr %2, align 8, !tbaa !24
  call void @llvm.lifetime.start.p0(i64 8, ptr %3) #10
  call void @llvm.lifetime.start.p0(i64 8, ptr %4) #10
  call void @llvm.lifetime.start.p0(i64 4, ptr %5) #10
  store i32 0, ptr %5, align 4, !tbaa !12
  call void @llvm.lifetime.start.p0(i64 1, ptr %6) #10
  store i8 0, ptr %6, align 1, !tbaa !14
  %7 = load i8, ptr @H5D_init_g, align 1, !tbaa !14, !range !16, !noundef !17
  %8 = trunc i8 %7 to i1
  br i1 %8, label %13, label %9

9:                                                ; preds = %1
  %10 = load i8, ptr @H5_libterm_g, align 1, !tbaa !14, !range !16, !noundef !17
  %11 = trunc i8 %10 to i1
  %12 = xor i1 %11, true
  br label %13

13:                                               ; preds = %9, %1
  %14 = phi i1 [ true, %1 ], [ %12, %9 ]
  %15 = xor i1 %14, true
  %16 = xor i1 %15, true
  %17 = zext i1 %16 to i32
  %18 = sext i32 %17 to i64
  %19 = call i64 @llvm.expect.i64(i64 %18, i64 1)
  %20 = icmp ne i64 %19, 0
  br i1 %20, label %21, label %174

21:                                               ; preds = %13
  store i64 0, ptr %3, align 8, !tbaa !10
  br label %22

22:                                               ; preds = %170, %21
  %23 = load i64, ptr %3, align 8, !tbaa !10
  %24 = load ptr, ptr %2, align 8, !tbaa !24
  %25 = getelementptr inbounds nuw %struct.H5O_storage_virtual_t, ptr %24, i32 0, i32 1
  %26 = load i64, ptr %25, align 8, !tbaa !26
  %27 = icmp ult i64 %23, %26
  br i1 %27, label %28, label %173

28:                                               ; preds = %22
  %29 = load ptr, ptr %2, align 8, !tbaa !24
  %30 = getelementptr inbounds nuw %struct.H5O_storage_virtual_t, ptr %29, i32 0, i32 2
  %31 = load ptr, ptr %30, align 8, !tbaa !30
  %32 = load i64, ptr %3, align 8, !tbaa !10
  %33 = getelementptr inbounds nuw %struct.H5O_storage_virtual_ent_t, ptr %31, i64 %32
  %34 = getelementptr inbounds nuw %struct.H5O_storage_virtual_ent_t, ptr %33, i32 0, i32 11
  %35 = load i64, ptr %34, align 8, !tbaa !77
  %36 = icmp ne i64 %35, 0
  br i1 %36, label %46, label %37

37:                                               ; preds = %28
  %38 = load ptr, ptr %2, align 8, !tbaa !24
  %39 = getelementptr inbounds nuw %struct.H5O_storage_virtual_t, ptr %38, i32 0, i32 2
  %40 = load ptr, ptr %39, align 8, !tbaa !30
  %41 = load i64, ptr %3, align 8, !tbaa !10
  %42 = getelementptr inbounds nuw %struct.H5O_storage_virtual_ent_t, ptr %40, i64 %41
  %43 = getelementptr inbounds nuw %struct.H5O_storage_virtual_ent_t, ptr %42, i32 0, i32 14
  %44 = load i64, ptr %43, align 8, !tbaa !78
  %45 = icmp ne i64 %44, 0
  br i1 %45, label %46, label %123

46:                                               ; preds = %37, %28
  %47 = load ptr, ptr %2, align 8, !tbaa !24
  %48 = getelementptr inbounds nuw %struct.H5O_storage_virtual_t, ptr %47, i32 0, i32 2
  %49 = load ptr, ptr %48, align 8, !tbaa !30
  %50 = load i64, ptr %3, align 8, !tbaa !10
  %51 = getelementptr inbounds nuw %struct.H5O_storage_virtual_ent_t, ptr %49, i64 %50
  %52 = getelementptr inbounds nuw %struct.H5O_storage_virtual_ent_t, ptr %51, i32 0, i32 7
  %53 = load i64, ptr %52, align 8, !tbaa !79
  store i64 %53, ptr %4, align 8, !tbaa !10
  br label %54

54:                                               ; preds = %119, %46
  %55 = load i64, ptr %4, align 8, !tbaa !10
  %56 = load ptr, ptr %2, align 8, !tbaa !24
  %57 = getelementptr inbounds nuw %struct.H5O_storage_virtual_t, ptr %56, i32 0, i32 2
  %58 = load ptr, ptr %57, align 8, !tbaa !30
  %59 = load i64, ptr %3, align 8, !tbaa !10
  %60 = getelementptr inbounds nuw %struct.H5O_storage_virtual_ent_t, ptr %58, i64 %59
  %61 = getelementptr inbounds nuw %struct.H5O_storage_virtual_ent_t, ptr %60, i32 0, i32 8
  %62 = load i64, ptr %61, align 8, !tbaa !80
  %63 = icmp ult i64 %55, %62
  br i1 %63, label %64, label %122

64:                                               ; preds = %54
  %65 = load ptr, ptr %2, align 8, !tbaa !24
  %66 = getelementptr inbounds nuw %struct.H5O_storage_virtual_t, ptr %65, i32 0, i32 2
  %67 = load ptr, ptr %66, align 8, !tbaa !30
  %68 = load i64, ptr %3, align 8, !tbaa !10
  %69 = getelementptr inbounds nuw %struct.H5O_storage_virtual_ent_t, ptr %67, i64 %68
  %70 = getelementptr inbounds nuw %struct.H5O_storage_virtual_ent_t, ptr %69, i32 0, i32 4
  %71 = load ptr, ptr %70, align 8, !tbaa !81
  %72 = load i64, ptr %4, align 8, !tbaa !10
  %73 = getelementptr inbounds nuw %struct.H5O_storage_virtual_srcdset_t, ptr %71, i64 %72
  %74 = getelementptr inbounds nuw %struct.H5O_storage_virtual_srcdset_t, ptr %73, i32 0, i32 7
  %75 = load ptr, ptr %74, align 8, !tbaa !114
  %76 = icmp ne ptr %75, null
  br i1 %76, label %77, label %118

77:                                               ; preds = %64
  %78 = load ptr, ptr %2, align 8, !tbaa !24
  %79 = getelementptr inbounds nuw %struct.H5O_storage_virtual_t, ptr %78, i32 0, i32 2
  %80 = load ptr, ptr %79, align 8, !tbaa !30
  %81 = load i64, ptr %3, align 8, !tbaa !10
  %82 = getelementptr inbounds nuw %struct.H5O_storage_virtual_ent_t, ptr %80, i64 %81
  %83 = getelementptr inbounds nuw %struct.H5O_storage_virtual_ent_t, ptr %82, i32 0, i32 4
  %84 = load ptr, ptr %83, align 8, !tbaa !81
  %85 = load i64, ptr %4, align 8, !tbaa !10
  %86 = getelementptr inbounds nuw %struct.H5O_storage_virtual_srcdset_t, ptr %84, i64 %85
  %87 = getelementptr inbounds nuw %struct.H5O_storage_virtual_srcdset_t, ptr %86, i32 0, i32 7
  %88 = load ptr, ptr %87, align 8, !tbaa !114
  %89 = call i32 @H5S_close(ptr noundef %88)
  %90 = icmp slt i32 %89, 0
  br i1 %90, label %91, label %107

91:                                               ; preds = %77
  br label %92

92:                                               ; preds = %91
  br label %93

93:                                               ; preds = %92
  br label %94

94:                                               ; preds = %93
  %95 = load i64, ptr @H5E_DATASET_g, align 8, !tbaa !10
  %96 = load i64, ptr @H5E_CLOSEERROR_g, align 8, !tbaa !10
  %97 = call i32 (ptr, ptr, i32, i64, i64, ptr, ...) @H5E_printf_stack(ptr noundef @.str.1, ptr noundef @__func__.H5D__virtual_post_io, i32 noundef 2630, i64 noundef %95, i64 noundef %96, ptr noundef @.str.103)
  br label %98

98:                                               ; preds = %94
  br label %99

99:                                               ; preds = %98
  store i8 1, ptr %6, align 1, !tbaa !14
  %100 = load i8, ptr %6, align 1, !tbaa !14, !range !16, !noundef !17
  %101 = trunc i8 %100 to i1
  %102 = zext i1 %101 to i8
  store i8 %102, ptr %6, align 1, !tbaa !14
  br label %103

103:                                              ; preds = %99
  br label %104

104:                                              ; preds = %103
  store i32 -1, ptr %5, align 4, !tbaa !12
  br label %105

105:                                              ; preds = %104
  br label %106

106:                                              ; preds = %105
  br label %107

107:                                              ; preds = %106, %77
  %108 = load ptr, ptr %2, align 8, !tbaa !24
  %109 = getelementptr inbounds nuw %struct.H5O_storage_virtual_t, ptr %108, i32 0, i32 2
  %110 = load ptr, ptr %109, align 8, !tbaa !30
  %111 = load i64, ptr %3, align 8, !tbaa !10
  %112 = getelementptr inbounds nuw %struct.H5O_storage_virtual_ent_t, ptr %110, i64 %111
  %113 = getelementptr inbounds nuw %struct.H5O_storage_virtual_ent_t, ptr %112, i32 0, i32 4
  %114 = load ptr, ptr %113, align 8, !tbaa !81
  %115 = load i64, ptr %4, align 8, !tbaa !10
  %116 = getelementptr inbounds nuw %struct.H5O_storage_virtual_srcdset_t, ptr %114, i64 %115
  %117 = getelementptr inbounds nuw %struct.H5O_storage_virtual_srcdset_t, ptr %116, i32 0, i32 7
  store ptr null, ptr %117, align 8, !tbaa !114
  br label %118

118:                                              ; preds = %107, %64
  br label %119

119:                                              ; preds = %118
  %120 = load i64, ptr %4, align 8, !tbaa !10
  %121 = add i64 %120, 1
  store i64 %121, ptr %4, align 8, !tbaa !10
  br label %54, !llvm.loop !213

122:                                              ; preds = %54
  br label %169

123:                                              ; preds = %37
  %124 = load ptr, ptr %2, align 8, !tbaa !24
  %125 = getelementptr inbounds nuw %struct.H5O_storage_virtual_t, ptr %124, i32 0, i32 2
  %126 = load ptr, ptr %125, align 8, !tbaa !30
  %127 = load i64, ptr %3, align 8, !tbaa !10
  %128 = getelementptr inbounds nuw %struct.H5O_storage_virtual_ent_t, ptr %126, i64 %127
  %129 = getelementptr inbounds nuw %struct.H5O_storage_virtual_ent_t, ptr %128, i32 0, i32 0
  %130 = getelementptr inbounds nuw %struct.H5O_storage_virtual_srcdset_t, ptr %129, i32 0, i32 7
  %131 = load ptr, ptr %130, align 8, !tbaa !116
  %132 = icmp ne ptr %131, null
  br i1 %132, label %133, label %168

133:                                              ; preds = %123
  %134 = load ptr, ptr %2, align 8, !tbaa !24
  %135 = getelementptr inbounds nuw %struct.H5O_storage_virtual_t, ptr %134, i32 0, i32 2
  %136 = load ptr, ptr %135, align 8, !tbaa !30
  %137 = load i64, ptr %3, align 8, !tbaa !10
  %138 = getelementptr inbounds nuw %struct.H5O_storage_virtual_ent_t, ptr %136, i64 %137
  %139 = getelementptr inbounds nuw %struct.H5O_storage_virtual_ent_t, ptr %138, i32 0, i32 0
  %140 = getelementptr inbounds nuw %struct.H5O_storage_virtual_srcdset_t, ptr %139, i32 0, i32 7
  %141 = load ptr, ptr %140, align 8, !tbaa !116
  %142 = call i32 @H5S_close(ptr noundef %141)
  %143 = icmp slt i32 %142, 0
  br i1 %143, label %144, label %160

144:                                              ; preds = %133
  br label %145

145:                                              ; preds = %144
  br label %146

146:                                              ; preds = %145
  br label %147

147:                                              ; preds = %146
  %148 = load i64, ptr @H5E_DATASET_g, align 8, !tbaa !10
  %149 = load i64, ptr @H5E_CLOSEERROR_g, align 8, !tbaa !10
  %150 = call i32 (ptr, ptr, i32, i64, i64, ptr, ...) @H5E_printf_stack(ptr noundef @.str.1, ptr noundef @__func__.H5D__virtual_post_io, i32 noundef 2638, i64 noundef %148, i64 noundef %149, ptr noundef @.str.103)
  br label %151

151:                                              ; preds = %147
  br label %152

152:                                              ; preds = %151
  store i8 1, ptr %6, align 1, !tbaa !14
  %153 = load i8, ptr %6, align 1, !tbaa !14, !range !16, !noundef !17
  %154 = trunc i8 %153 to i1
  %155 = zext i1 %154 to i8
  store i8 %155, ptr %6, align 1, !tbaa !14
  br label %156

156:                                              ; preds = %152
  br label %157

157:                                              ; preds = %156
  store i32 -1, ptr %5, align 4, !tbaa !12
  br label %158

158:                                              ; preds = %157
  br label %159

159:                                              ; preds = %158
  br label %160

160:                                              ; preds = %159, %133
  %161 = load ptr, ptr %2, align 8, !tbaa !24
  %162 = getelementptr inbounds nuw %struct.H5O_storage_virtual_t, ptr %161, i32 0, i32 2
  %163 = load ptr, ptr %162, align 8, !tbaa !30
  %164 = load i64, ptr %3, align 8, !tbaa !10
  %165 = getelementptr inbounds nuw %struct.H5O_storage_virtual_ent_t, ptr %163, i64 %164
  %166 = getelementptr inbounds nuw %struct.H5O_storage_virtual_ent_t, ptr %165, i32 0, i32 0
  %167 = getelementptr inbounds nuw %struct.H5O_storage_virtual_srcdset_t, ptr %166, i32 0, i32 7
  store ptr null, ptr %167, align 8, !tbaa !116
  br label %168

168:                                              ; preds = %160, %123
  br label %169

169:                                              ; preds = %168, %122
  br label %170

170:                                              ; preds = %169
  %171 = load i64, ptr %3, align 8, !tbaa !10
  %172 = add i64 %171, 1
  store i64 %172, ptr %3, align 8, !tbaa !10
  br label %22, !llvm.loop !214

173:                                              ; preds = %22
  br label %174

174:                                              ; preds = %173, %13
  %175 = load i32, ptr %5, align 4, !tbaa !12
  call void @llvm.lifetime.end.p0(i64 1, ptr %6) #10
  call void @llvm.lifetime.end.p0(i64 4, ptr %5) #10
  call void @llvm.lifetime.end.p0(i64 8, ptr %4) #10
  call void @llvm.lifetime.end.p0(i64 8, ptr %3) #10
  ret i32 %175
}