; Function Attrs: nounwind uwtable
define internal fastcc range(i32 -1, 1) i32 @H5D__virtual_post_io(ptr noundef readonly captures(none) %0) unnamed_addr #0 {
  %2 = load i8, ptr @H5D_init_g, align 1, !tbaa !3, !range !7, !noundef !8
  %3 = trunc nuw i8 %2 to i1
  %4 = load i8, ptr @H5_libterm_g, align 1, !range !7
  %5 = trunc nuw i8 %4 to i1
  %6 = xor i1 %5, true
  %7 = select i1 %3, i1 true, i1 %6
  br i1 %7, label %.preheader, label %.loopexit37, !prof !9

.preheader:                                       ; preds = %1
  %8 = getelementptr inbounds nuw i8, ptr %0, i64 16
  %9 = load i64, ptr %8, align 8, !tbaa !20
  %.not45 = icmp eq i64 %9, 0
  br i1 %.not45, label %.loopexit37, label %.lr.ph43

.lr.ph43:                                         ; preds = %.preheader
  %10 = getelementptr inbounds nuw i8, ptr %0, i64 24
  %.pre = load ptr, ptr %10, align 8, !tbaa !27
  br label %11

11:                                               ; preds = %.lr.ph43, %.loopexit
  %12 = phi ptr [ %.pre, %.lr.ph43 ], [ %64, %.loopexit ]
  %13 = phi ptr [ %.pre, %.lr.ph43 ], [ %65, %.loopexit ]
  %14 = phi ptr [ %.pre, %.lr.ph43 ], [ %66, %.loopexit ]
  %.142 = phi i32 [ 0, %.lr.ph43 ], [ %.6, %.loopexit ]
  %.03140 = phi i64 [ 0, %.lr.ph43 ], [ %67, %.loopexit ]
  %15 = getelementptr inbounds nuw %struct.H5O_storage_virtual_ent_t, ptr %14, i64 %.03140
  %16 = getelementptr inbounds nuw i8, ptr %15, i64 144
  %17 = load i64, ptr %16, align 8, !tbaa !69
  %.not = icmp eq i64 %17, 0
  br i1 %.not, label %18, label %21

18:                                               ; preds = %11
  %19 = getelementptr inbounds nuw i8, ptr %15, i64 168
  %20 = load i64, ptr %19, align 8, !tbaa !70
  %.not34 = icmp eq i64 %20, 0
  br i1 %.not34, label %51, label %21

21:                                               ; preds = %18, %11
  %22 = getelementptr inbounds nuw %struct.H5O_storage_virtual_ent_t, ptr %14, i64 %.03140, i32 7
  %23 = load i64, ptr %22, align 8, !tbaa !71
  %24 = getelementptr inbounds nuw %struct.H5O_storage_virtual_ent_t, ptr %13, i64 %.03140, i32 8
  %25 = load i64, ptr %24, align 8, !tbaa !72
  %26 = icmp ult i64 %23, %25
  br i1 %26, label %.lr.ph, label %.loopexit

.lr.ph:                                           ; preds = %21, %45
  %27 = phi ptr [ %46, %45 ], [ %12, %21 ]
  %28 = phi ptr [ %46, %45 ], [ %13, %21 ]
  %.239 = phi i32 [ %.4, %45 ], [ %.142, %21 ]
  %.03038 = phi i64 [ %47, %45 ], [ %23, %21 ]
  %29 = getelementptr inbounds nuw %struct.H5O_storage_virtual_ent_t, ptr %28, i64 %.03140, i32 4
  %30 = load ptr, ptr %29, align 8, !tbaa !73
  %31 = getelementptr inbounds nuw %struct.H5O_storage_virtual_srcdset_t, ptr %30, i64 %.03038, i32 7
  %32 = load ptr, ptr %31, align 8, !tbaa !102
  %.not36 = icmp eq ptr %32, null
  br i1 %.not36, label %45, label %33

33:                                               ; preds = %.lr.ph
  %34 = tail call i32 @H5S_close(ptr noundef nonnull %32) #14
  %35 = icmp slt i32 %34, 0
  br i1 %35, label %36, label %40

36:                                               ; preds = %33
  %37 = load i64, ptr @H5E_DATASET_g, align 8, !tbaa !24
  %38 = load i64, ptr @H5E_CLOSEERROR_g, align 8, !tbaa !24
  %39 = tail call i32 (ptr, ptr, i32, i64, i64, ptr, ...) @H5E_printf_stack(ptr noundef nonnull @.str.1, ptr noundef nonnull @__func__.H5D__virtual_post_io, i32 noundef 2630, i64 noundef %37, i64 noundef %38, ptr noundef nonnull @.str.103) #14
  br label %40

40:                                               ; preds = %36, %33
  %.3 = phi i32 [ -1, %36 ], [ %.239, %33 ]
  %41 = load ptr, ptr %10, align 8, !tbaa !27
  %42 = getelementptr inbounds nuw %struct.H5O_storage_virtual_ent_t, ptr %41, i64 %.03140, i32 4
  %43 = load ptr, ptr %42, align 8, !tbaa !73
  %44 = getelementptr inbounds nuw %struct.H5O_storage_virtual_srcdset_t, ptr %43, i64 %.03038, i32 7
  store ptr null, ptr %44, align 8, !tbaa !102
  br label %45

45:                                               ; preds = %.lr.ph, %40
  %46 = phi ptr [ %41, %40 ], [ %27, %.lr.ph ]
  %.4 = phi i32 [ %.3, %40 ], [ %.239, %.lr.ph ]
  %47 = add nuw i64 %.03038, 1
  %48 = getelementptr inbounds nuw %struct.H5O_storage_virtual_ent_t, ptr %46, i64 %.03140, i32 8
  %49 = load i64, ptr %48, align 8, !tbaa !72
  %50 = icmp ult i64 %47, %49
  br i1 %50, label %.lr.ph, label %.loopexit, !llvm.loop !189

51:                                               ; preds = %18
  %52 = getelementptr inbounds nuw i8, ptr %15, i64 56
  %53 = load ptr, ptr %52, align 8, !tbaa !104
  %.not35 = icmp eq ptr %53, null
  br i1 %.not35, label %.loopexit, label %54

54:                                               ; preds = %51
  %55 = tail call i32 @H5S_close(ptr noundef nonnull %53) #14
  %56 = icmp slt i32 %55, 0
  br i1 %56, label %57, label %61

57:                                               ; preds = %54
  %58 = load i64, ptr @H5E_DATASET_g, align 8, !tbaa !24
  %59 = load i64, ptr @H5E_CLOSEERROR_g, align 8, !tbaa !24
  %60 = tail call i32 (ptr, ptr, i32, i64, i64, ptr, ...) @H5E_printf_stack(ptr noundef nonnull @.str.1, ptr noundef nonnull @__func__.H5D__virtual_post_io, i32 noundef 2638, i64 noundef %58, i64 noundef %59, ptr noundef nonnull @.str.103) #14
  br label %61

61:                                               ; preds = %57, %54
  %.5 = phi i32 [ -1, %57 ], [ %.142, %54 ]
  %62 = load ptr, ptr %10, align 8, !tbaa !27
  %63 = getelementptr inbounds nuw %struct.H5O_storage_virtual_ent_t, ptr %62, i64 %.03140, i32 0, i32 7
  store ptr null, ptr %63, align 8, !tbaa !104
  br label %.loopexit

.loopexit:                                        ; preds = %45, %21, %61, %51
  %64 = phi ptr [ %62, %61 ], [ %12, %51 ], [ %12, %21 ], [ %46, %45 ]
  %65 = phi ptr [ %62, %61 ], [ %13, %51 ], [ %13, %21 ], [ %46, %45 ]
  %66 = phi ptr [ %62, %61 ], [ %14, %51 ], [ %13, %21 ], [ %46, %45 ]
  %.6 = phi i32 [ %.5, %61 ], [ %.142, %51 ], [ %.142, %21 ], [ %.4, %45 ]
  %67 = add nuw i64 %.03140, 1
  %68 = load i64, ptr %8, align 8, !tbaa !20
  %69 = icmp ult i64 %67, %68
  br i1 %69, label %11, label %.loopexit37, !llvm.loop !190

.loopexit37:                                      ; preds = %.loopexit, %.preheader, %1
  %.0 = phi i32 [ 0, %1 ], [ 0, %.preheader ], [ %.6, %.loopexit ]
  ret i32 %.0
}